; Function Attrs: mustprogress nofree nounwind willreturn memory(write, argmem: none, inaccessiblemem: readwrite) uwtable
define internal fastcc noalias noundef ptr @node_new_ctype(i32 noundef range(i32 -1, 13) %0, i32 noundef %1, i32 noundef %2) unnamed_addr #16 {
  %calloc.i = tail call noalias noundef dereferenceable_or_null(72) ptr @calloc(i64 1, i64 72)
  %4 = icmp eq ptr %calloc.i, null
  br i1 %4, label %26, label %5

5:                                                ; preds = %3
  store i32 2, ptr %calloc.i, align 8, !tbaa !10
  %6 = getelementptr inbounds nuw i8, ptr %calloc.i, i64 16
  store i32 %0, ptr %6, align 8, !tbaa !10
  %7 = getelementptr inbounds nuw i8, ptr %calloc.i, i64 20
  store i32 %1, ptr %7, align 4, !tbaa !10
  %8 = icmp sgt i32 %0, -1
  br i1 %8, label %9, label %23

9:                                                ; preds = %5
  %10 = and i32 %2, 524288
  %.not = icmp eq i32 %10, 0
  br i1 %.not, label %11, label %23

11:                                               ; preds = %9
  %12 = icmp ne i32 %0, 12
  %13 = and i32 %2, 65536
  %.not19 = icmp eq i32 %13, 0
  %or.cond = or i1 %12, %.not19
  br i1 %or.cond, label %14, label %23

14:                                               ; preds = %11
  %15 = icmp ne i32 %0, 4
  %16 = and i32 %2, 131072
  %.not20 = icmp eq i32 %16, 0
  %or.cond21 = or i1 %15, %.not20
  br i1 %or.cond21, label %17, label %23

17:                                               ; preds = %14
  %18 = icmp eq i32 %0, 9
  %19 = and i32 %2, 262144
  %20 = icmp ne i32 %19, 0
  %21 = and i1 %18, %20
  %22 = zext i1 %21 to i32
  br label %23

23:                                               ; preds = %14, %11, %9, %17, %5
  %24 = phi i32 [ 0, %5 ], [ 1, %9 ], [ %22, %17 ], [ 1, %11 ], [ 1, %14 ]
  %25 = getelementptr inbounds nuw i8, ptr %calloc.i, i64 24
  store i32 %24, ptr %25, align 8, !tbaa !10
  br label %26

26:                                               ; preds = %3, %23
  ret ptr %calloc.i
}